target datalayout = "e-m:e-p270:32:32-p271:32:32-p272:64:64-i64:64-i128:128-f80:128-n8:16:32:64-S128"
target triple = "x86_64-pc-linux-gnu"

%struct._zval_struct = type { %union._zend_value, %union.anon, %union.anon.2 }
%union._zend_value = type { i64 }
%union.anon = type { i32 }
%union.anon.2 = type { i32 }
%struct._zend_array = type { %struct._zend_refcounted_h, %union.anon.4, i32, %union.anon.6, i32, i32, i32, i32, i64, ptr }
%struct._zend_refcounted_h = type { i32, %union.anon.3 }
%union.anon.3 = type { i32 }
%union.anon.4 = type { i32 }
%union.anon.6 = type { ptr }
%struct._zend_string = type { %struct._zend_refcounted_h, i64, i64, [1 x i8] }
%struct._zend_reference = type { %struct._zend_refcounted_h, %struct._zval_struct, %union.zend_property_info_source_list }
%union.zend_property_info_source_list = type { ptr }
%struct._Bucket = type { %struct._zval_struct, i64, ptr }

@.str.41 = private unnamed_addr constant [68 x i8] c"Options should have the form [\22wrappername\22][\22optionname\22] = $value\00", align 1

; Function Attrs: nounwind uwtable
define internal i32 @parse_context_options(ptr noundef %0, ptr noundef %1) #0 {
  %3 = alloca ptr, align 8
  %4 = alloca ptr, align 8
  %5 = alloca ptr, align 8
  %6 = alloca ptr, align 8
  %7 = alloca i32, align 4
  %8 = alloca ptr, align 8
  %9 = alloca ptr, align 8
  %10 = alloca ptr, align 8
  %11 = alloca ptr, align 8
  %12 = alloca ptr, align 8
  %13 = alloca ptr, align 8
  %14 = alloca ptr, align 8
  %15 = alloca i64, align 8
  %16 = alloca ptr, align 8
  %17 = alloca i32, align 4
  %18 = alloca i64, align 8
  %19 = alloca ptr, align 8
  %20 = alloca i32, align 4
  %21 = alloca ptr, align 8
  %22 = alloca ptr, align 8
  %23 = alloca ptr, align 8
  %24 = alloca ptr, align 8
  %25 = alloca ptr, align 8
  %26 = alloca ptr, align 8
  store ptr %0, ptr %8, align 8
  store ptr %1, ptr %9, align 8
  br label %27

27:                                               ; preds = %2
  %28 = load ptr, ptr %9, align 8
  store ptr %28, ptr %14, align 8
  store ptr null, ptr %16, align 8
  store i32 0, ptr %17, align 4
  %29 = load ptr, ptr %14, align 8
  %30 = getelementptr inbounds %struct._zend_array, ptr %29, i32 0, i32 1
  %31 = load i32, ptr %30, align 8
  %32 = xor i32 %31, -1
  %33 = and i32 %32, 4
  %34 = zext i32 %33 to i64
  %35 = mul i64 %34, 4
  %36 = add i64 16, %35
  store i64 %36, ptr %18, align 8
  %37 = load ptr, ptr %14, align 8
  %38 = getelementptr inbounds %struct._zend_array, ptr %37, i32 0, i32 3
  %39 = load ptr, ptr %38, align 8
  %40 = load i32, ptr %17, align 4
  %41 = zext i32 %40 to i64
  %42 = load i64, ptr %18, align 8
  %43 = mul i64 %41, %42
  %44 = getelementptr inbounds i8, ptr %39, i64 %43
  store ptr %44, ptr %19, align 8
  %45 = load ptr, ptr %14, align 8
  %46 = getelementptr inbounds %struct._zend_array, ptr %45, i32 0, i32 4
  %47 = load i32, ptr %46, align 8
  %48 = load i32, ptr %17, align 4
  %49 = sub i32 %47, %48
  store i32 %49, ptr %20, align 4
  br label %50

50:                                               ; preds = %197, %27
  %51 = load i32, ptr %20, align 4
  %52 = icmp ugt i32 %51, 0
  br i1 %52, label %53, label %200

53:                                               ; preds = %50
  %54 = load ptr, ptr %19, align 8
  store ptr %54, ptr %21, align 8
  %55 = load ptr, ptr %14, align 8
  %56 = getelementptr inbounds %struct._zend_array, ptr %55, i32 0, i32 1
  %57 = load i32, ptr %56, align 8
  %58 = and i32 %57, 4
  %59 = icmp ne i32 %58, 0
  br i1 %59, label %60, label %67

60:                                               ; preds = %53
  %61 = load ptr, ptr %19, align 8
  %62 = getelementptr inbounds %struct._zval_struct, ptr %61, i32 1
  store ptr %62, ptr %19, align 8
  %63 = load i32, ptr %17, align 4
  %64 = zext i32 %63 to i64
  store i64 %64, ptr %15, align 8
  %65 = load i32, ptr %17, align 4
  %66 = add i32 %65, 1
  store i32 %66, ptr %17, align 4
  br label %78

67:                                               ; preds = %53
  %68 = load ptr, ptr %19, align 8
  store ptr %68, ptr %22, align 8
  %69 = load ptr, ptr %22, align 8
  %70 = getelementptr inbounds %struct._Bucket, ptr %69, i64 1
  %71 = getelementptr inbounds %struct._Bucket, ptr %70, i32 0, i32 0
  store ptr %71, ptr %19, align 8
  %72 = load ptr, ptr %22, align 8
  %73 = getelementptr inbounds %struct._Bucket, ptr %72, i32 0, i32 1
  %74 = load i64, ptr %73, align 8
  store i64 %74, ptr %15, align 8
  %75 = load ptr, ptr %22, align 8
  %76 = getelementptr inbounds %struct._Bucket, ptr %75, i32 0, i32 2
  %77 = load ptr, ptr %76, align 8
  store ptr %77, ptr %16, align 8
  br label %78

78:                                               ; preds = %67, %60
  %79 = load ptr, ptr %21, align 8
  store ptr %79, ptr %3, align 8
  %80 = load ptr, ptr %3, align 8
  %81 = getelementptr inbounds %struct._zval_struct, ptr %80, i32 0, i32 1
  %82 = load i8, ptr %81, align 8
  %83 = zext i8 %82 to i32
  %84 = icmp eq i32 %83, 0
  %85 = xor i1 %84, true
  %86 = xor i1 %85, true
  %87 = zext i1 %86 to i32
  %88 = sext i32 %87 to i64
  %89 = icmp ne i64 %88, 0
  br i1 %89, label %90, label %91

90:                                               ; preds = %78
  br label %197

91:                                               ; preds = %78
  %92 = load ptr, ptr %16, align 8
  store ptr %92, ptr %12, align 8
  %93 = load ptr, ptr %21, align 8
  store ptr %93, ptr %10, align 8
  br label %94

94:                                               ; preds = %91
  %95 = load ptr, ptr %10, align 8
  store ptr %95, ptr %4, align 8
  %96 = load ptr, ptr %4, align 8
  %97 = getelementptr inbounds %struct._zval_struct, ptr %96, i32 0, i32 1
  %98 = load i8, ptr %97, align 8
  %99 = zext i8 %98 to i32
  %100 = icmp eq i32 %99, 10
  %101 = xor i1 %100, true
  %102 = xor i1 %101, true
  %103 = zext i1 %102 to i32
  %104 = sext i32 %103 to i64
  %105 = icmp ne i64 %104, 0
  br i1 %105, label %106, label %111

106:                                              ; preds = %94
  %107 = load ptr, ptr %10, align 8
  %108 = getelementptr inbounds %struct._zval_struct, ptr %107, i32 0, i32 0
  %109 = load ptr, ptr %108, align 8
  %110 = getelementptr inbounds %struct._zend_reference, ptr %109, i32 0, i32 1
  store ptr %110, ptr %10, align 8
  br label %111

111:                                              ; preds = %106, %94
  br label %112

112:                                              ; preds = %111
  %113 = load ptr, ptr %12, align 8
  %114 = icmp ne ptr %113, null
  br i1 %114, label %115, label %195

115:                                              ; preds = %112
  %116 = load ptr, ptr %10, align 8
  store ptr %116, ptr %5, align 8
  %117 = load ptr, ptr %5, align 8
  %118 = getelementptr inbounds %struct._zval_struct, ptr %117, i32 0, i32 1
  %119 = load i8, ptr %118, align 8
  %120 = zext i8 %119 to i32
  %121 = icmp eq i32 %120, 7
  br i1 %121, label %122, label %195

122:                                              ; preds = %115
  %123 = load ptr, ptr %10, align 8
  %124 = getelementptr inbounds %struct._zval_struct, ptr %123, i32 0, i32 0
  %125 = load ptr, ptr %124, align 8
  %126 = getelementptr inbounds %struct._zend_array, ptr %125, i32 0, i32 1
  %127 = load i32, ptr %126, align 8
  %128 = and i32 %127, 4
  %129 = icmp ne i32 %128, 0
  br i1 %129, label %194, label %130

130:                                              ; preds = %122
  br label %131

131:                                              ; preds = %130
  %132 = load ptr, ptr %10, align 8
  %133 = getelementptr inbounds %struct._zval_struct, ptr %132, i32 0, i32 0
  %134 = load ptr, ptr %133, align 8
  store ptr %134, ptr %23, align 8
  %135 = load ptr, ptr %23, align 8
  %136 = getelementptr inbounds %struct._zend_array, ptr %135, i32 0, i32 3
  %137 = load ptr, ptr %136, align 8
  %138 = getelementptr inbounds %struct._Bucket, ptr %137, i64 0
  store ptr %138, ptr %24, align 8
  %139 = load ptr, ptr %23, align 8
  %140 = getelementptr inbounds %struct._zend_array, ptr %139, i32 0, i32 3
  %141 = load ptr, ptr %140, align 8
  %142 = load ptr, ptr %23, align 8
  %143 = getelementptr inbounds %struct._zend_array, ptr %142, i32 0, i32 4
  %144 = load i32, ptr %143, align 8
  %145 = zext i32 %144 to i64
  %146 = getelementptr inbounds %struct._Bucket, ptr %141, i64 %145
  store ptr %146, ptr %25, align 8
  %147 = load ptr, ptr %23, align 8
  %148 = getelementptr inbounds %struct._zend_array, ptr %147, i32 0, i32 1
  %149 = load i32, ptr %148, align 8
  %150 = and i32 %149, 4
  %151 = icmp ne i32 %150, 0
  %152 = xor i1 %151, true
  call void @llvm.assume(i1 %152)
  br label %153

153:                                              ; preds = %189, %131
  %154 = load ptr, ptr %24, align 8
  %155 = load ptr, ptr %25, align 8
  %156 = icmp ne ptr %154, %155
  br i1 %156, label %157, label %192

157:                                              ; preds = %153
  %158 = load ptr, ptr %24, align 8
  %159 = getelementptr inbounds %struct._Bucket, ptr %158, i32 0, i32 0
  store ptr %159, ptr %26, align 8
  %160 = load ptr, ptr %26, align 8
  store ptr %160, ptr %6, align 8
  %161 = load ptr, ptr %6, align 8
  %162 = getelementptr inbounds %struct._zval_struct, ptr %161, i32 0, i32 1
  %163 = load i8, ptr %162, align 8
  %164 = zext i8 %163 to i32
  %165 = icmp eq i32 %164, 0
  %166 = xor i1 %165, true
  %167 = xor i1 %166, true
  %168 = zext i1 %167 to i32
  %169 = sext i32 %168 to i64
  %170 = icmp ne i64 %169, 0
  br i1 %170, label %171, label %172

171:                                              ; preds = %157
  br label %189

172:                                              ; preds = %157
  %173 = load ptr, ptr %24, align 8
  %174 = getelementptr inbounds %struct._Bucket, ptr %173, i32 0, i32 2
  %175 = load ptr, ptr %174, align 8
  store ptr %175, ptr %13, align 8
  %176 = load ptr, ptr %26, align 8
  store ptr %176, ptr %11, align 8
  %177 = load ptr, ptr %13, align 8
  %178 = icmp ne ptr %177, null
  br i1 %178, label %179, label %188

179:                                              ; preds = %172
  %180 = load ptr, ptr %8, align 8
  %181 = load ptr, ptr %12, align 8
  %182 = getelementptr inbounds %struct._zend_string, ptr %181, i32 0, i32 3
  %183 = getelementptr inbounds [1 x i8], ptr %182, i64 0, i64 0
  %184 = load ptr, ptr %13, align 8
  %185 = getelementptr inbounds %struct._zend_string, ptr %184, i32 0, i32 3
  %186 = getelementptr inbounds [1 x i8], ptr %185, i64 0, i64 0
  %187 = load ptr, ptr %11, align 8
  call void @php_stream_context_set_option(ptr noundef %180, ptr noundef %183, ptr noundef %186, ptr noundef %187)
  br label %188

188:                                              ; preds = %179, %172
  br label %189

189:                                              ; preds = %188, %171
  %190 = load ptr, ptr %24, align 8
  %191 = getelementptr inbounds %struct._Bucket, ptr %190, i32 1
  store ptr %191, ptr %24, align 8
  br label %153

192:                                              ; preds = %153
  br label %193

193:                                              ; preds = %192
  br label %194

194:                                              ; preds = %193, %122
  br label %196

195:                                              ; preds = %115, %112
  call void (ptr, ...) @zend_value_error(ptr noundef @.str.41)
  store i32 -1, ptr %7, align 4
  br label %202

196:                                              ; preds = %194
  br label %197

197:                                              ; preds = %196, %90
  %198 = load i32, ptr %20, align 4
  %199 = add i32 %198, -1
  store i32 %199, ptr %20, align 4
  br label %50

200:                                              ; preds = %50
  br label %201

201:                                              ; preds = %200
  store i32 0, ptr %7, align 4
  br label %202

202:                                              ; preds = %201, %195
  %203 = load i32, ptr %7, align 4
  ret i32 %203
}