; Function Attrs: nounwind uwtable
define internal fastcc noundef i32 @parse_context_options(ptr noundef %0, ptr nocapture noundef readonly %1) unnamed_addr #0 {
  %3 = getelementptr inbounds i8, ptr %1, i64 8
  %4 = getelementptr inbounds i8, ptr %1, i64 24
  %5 = load i32, ptr %4, align 8
  %.not65 = icmp eq i32 %5, 0
  br i1 %.not65, label %.loopexit62, label %.lr.ph70.preheader

.lr.ph70.preheader:                               ; preds = %2
  %6 = getelementptr inbounds i8, ptr %1, i64 16
  %7 = load ptr, ptr %6, align 8
  br label %.lr.ph70

.lr.ph70:                                         ; preds = %.lr.ph70.preheader, %.loopexit
  %.04969 = phi ptr [ %.1, %.loopexit ], [ null, %.lr.ph70.preheader ]
  %.05267 = phi i32 [ %52, %.loopexit ], [ %5, %.lr.ph70.preheader ]
  %.05366 = phi ptr [ %.154, %.loopexit ], [ %7, %.lr.ph70.preheader ]
  %8 = load i32, ptr %3, align 8
  %9 = and i32 %8, 4
  %.not57 = icmp eq i32 %9, 0
  br i1 %.not57, label %12, label %10

10:                                               ; preds = %.lr.ph70
  %11 = getelementptr inbounds i8, ptr %.05366, i64 16
  br label %16

12:                                               ; preds = %.lr.ph70
  %13 = getelementptr inbounds i8, ptr %.05366, i64 32
  %14 = getelementptr inbounds i8, ptr %.05366, i64 24
  %15 = load ptr, ptr %14, align 8
  br label %16

16:                                               ; preds = %12, %10
  %.154 = phi ptr [ %11, %10 ], [ %13, %12 ]
  %.1 = phi ptr [ %.04969, %10 ], [ %15, %12 ]
  %17 = getelementptr inbounds i8, ptr %.05366, i64 8
  %18 = load i8, ptr %17, align 8
  switch i8 %18, label %22 [
    i8 0, label %.loopexit
    i8 10, label %19
  ]

19:                                               ; preds = %16
  %20 = load ptr, ptr %.05366, align 8
  %21 = getelementptr inbounds i8, ptr %20, i64 8
  br label %22

22:                                               ; preds = %16, %19
  %.047 = phi ptr [ %21, %19 ], [ %.05366, %16 ]
  %.not58 = icmp eq ptr %.1, null
  br i1 %.not58, label %51, label %23

23:                                               ; preds = %22
  %24 = getelementptr inbounds i8, ptr %.047, i64 8
  %25 = load i8, ptr %24, align 8
  %26 = icmp eq i8 %25, 7
  br i1 %26, label %27, label %51

27:                                               ; preds = %23
  %28 = load ptr, ptr %.047, align 8
  %29 = getelementptr inbounds i8, ptr %28, i64 8
  %30 = load i32, ptr %29, align 8
  %31 = and i32 %30, 4
  %.not59 = icmp eq i32 %31, 0
  br i1 %.not59, label %32, label %.loopexit

32:                                               ; preds = %27
  %33 = getelementptr inbounds i8, ptr %28, i64 16
  %34 = load ptr, ptr %33, align 8
  %35 = getelementptr inbounds i8, ptr %28, i64 24
  %36 = load i32, ptr %35, align 8
  %37 = zext i32 %36 to i64
  %38 = getelementptr inbounds %struct._Bucket, ptr %34, i64 %37
  %.not6063 = icmp eq i32 %36, 0
  br i1 %.not6063, label %.loopexit, label %.lr.ph

.lr.ph:                                           ; preds = %32
  %39 = getelementptr inbounds i8, ptr %.1, i64 24
  br label %40

40:                                               ; preds = %.lr.ph, %49
  %.04864 = phi ptr [ %34, %.lr.ph ], [ %50, %49 ]
  %41 = getelementptr inbounds i8, ptr %.04864, i64 8
  %42 = load i8, ptr %41, align 8
  %43 = icmp eq i8 %42, 0
  br i1 %43, label %49, label %44

44:                                               ; preds = %40
  %45 = getelementptr inbounds i8, ptr %.04864, i64 24
  %46 = load ptr, ptr %45, align 8
  %.not61 = icmp eq ptr %46, null
  br i1 %.not61, label %49, label %47

47:                                               ; preds = %44
  %48 = getelementptr inbounds i8, ptr %46, i64 24
  tail call void @php_stream_context_set_option(ptr noundef %0, ptr noundef nonnull %39, ptr noundef nonnull %48, ptr noundef nonnull %.04864) #10
  br label %49

49:                                               ; preds = %44, %47, %40
  %50 = getelementptr inbounds i8, ptr %.04864, i64 32
  %.not60 = icmp eq ptr %50, %38
  br i1 %.not60, label %.loopexit, label %40

51:                                               ; preds = %23, %22
  tail call void (ptr, ...) @zend_value_error(ptr noundef nonnull @.str.41) #10
  br label %.loopexit62

.loopexit:                                        ; preds = %49, %32, %16, %27
  %52 = add i32 %.05267, -1
  %.not = icmp eq i32 %52, 0
  br i1 %.not, label %.loopexit62, label %.lr.ph70

.loopexit62:                                      ; preds = %.loopexit, %2, %51
  %.0 = phi i32 [ -1, %51 ], [ 0, %2 ], [ 0, %.loopexit ]
  ret i32 %.0
}